Certificate:
    Data:
        Version: 3 (0x2)
        Serial Number:
            3a:a7:07:e3:31:f7:75:b0:90:95:5a:7a:d2:e7:9d:25
        Signature Algorithm: sha256WithRSAEncryption
        Issuer: CN=server.elin.local
        Validity
            Not Before: May 18 16:35:18 2021 GMT
            Not After : Aug 16 16:35:18 2021 GMT
        Subject: CN=Test intermediate certificate
        Subject Public Key Info:
            Public Key Algorithm: rsaEncryption
                RSA Public-Key: (2048 bit)
                Modulus:
                    00:c1:2f:5d:b3:bd:38:a6:05:e0:75:90:a6:ed:c9:
                    21:18:ff:28:0e:6d:06:04:43:1c:43:5d:af:2e:25:
                    22:31:95:bc:e5:c0:4b:55:32:54:d3:78:e1:5d:56:
                    ad:ae:48:11:fb:67:16:30:d3:96:bc:ee:7e:a3:ba:
                    a7:af:9d:b4:81:61:c4:f2:9a:28:cc:bf:b8:31:4c:
                    79:e3:2c:24:ed:24:87:58:30:e6:d0:37:a6:b9:83:
                    e0:4e:8e:35:2b:17:e2:10:68:37:cf:b9:99:e1:62:
                    80:68:a7:06:ba:a3:74:c4:e0:05:6f:e8:ab:7a:73:
                    6e:00:23:19:a1:b9:26:f6:de:f4:27:71:9e:dc:02:
                    6e:a7:2f:c3:d2:e5:31:ac:61:cf:cc:4f:98:9a:5a:
                    5d:5c:b8:99:54:86:0c:89:f7:2b:d8:2e:6c:65:23:
                    a6:c1:a2:b7:eb:21:f5:7f:1d:25:92:73:0e:ad:38:
                    84:e3:00:4e:a8:56:5d:6d:90:4b:90:30:a0:a8:7a:
                    22:24:cb:9a:37:be:9c:e8:1a:04:45:1a:aa:8b:15:
                    9e:c4:21:50:5f:41:af:4c:ec:56:8e:93:9a:1c:a9:
                    aa:9e:c6:c1:ea:75:93:60:16:ae:4e:e2:f5:55:3d:
                    b8:a6:2b:9e:57:10:81:6b:ff:95:17:88:70:9f:c8:
                    ba:6b
                Exponent: 65537 (0x10001)
        X509v3 extensions:
            X509v3 Basic Constraints: 
                CA:FALSE
            X509v3 Subject Key Identifier: 
                F2:A8:F9:3A:2F:7F:1A:6F:12:4B:D7:A7:7B:08:18:58:F5:1C:D7:E9
            X509v3 Authority Key Identifier: 
                keyid:32:09:50:EB:1A:3D:60:6C:3C:6D:74:20:D2:5E:AC:71:94:AE:68:DD
                DirName:/CN=server.elin.local
                serial:22:7E:B3:EC:71:3C:CF:F2:D2:9A:E4:61:DD:19:09:FC:81:89:60:6B

            X509v3 Extended Key Usage: 
                TLS Web Server Authentication
            X509v3 Key Usage: 
                Digital Signature, Key Encipherment
            X509v3 Subject Alternative Name: 
                DNS:Test intermediate certificate
    Signature Algorithm: sha256WithRSAEncryption
         6b:17:a7:d9:20:b6:8b:c6:7c:94:00:fd:dc:e1:57:8d:a8:c9:
         5f:3b:b1:93:f0:2b:00:c8:3d:ff:a1:13:d6:b8:2a:04:14:0a:
         60:5b:05:62:b2:c6:70:3c:d5:a8:b8:f0:34:ae:fc:50:c4:f3:
         f3:7f:c0:c0:f4:f0:f5:fa:48:f9:de:ae:c9:b1:26:8b:8e:3a:
         d2:cf:d0:1d:87:7e:d0:bc:00:3a:19:c4:32:ba:27:0d:16:42:
         8c:c4:1f:45:5e:65:7a:f7:79:80:0a:bb:80:88:18:2b:64:da:
         78:b7:0d:49:72:75:f7:25:54:58:37:50:42:e2:1b:d7:fe:03:
         01:fe:c2:fe:bd:e1:f4:fb:fb:ec:f7:41:38:58:ad:52:3a:71:
         6a:3d:ce:8f:b3:cc:ff:b7:49:55:ac:5e:53:42:54:18:cf:12:
         7d:e1:fb:54:b1:a4:fd:5d:4c:3e:fc:72:f3:f3:d6:45:a5:dc:
         1a:d5:23:f5:8f:69:c8:e8:63:a6:04:1f:45:01:7a:eb:a1:c1:
         11:5c:4b:00:01:8f:ef:52:77:df:ec:8a:f9:c9:d3:70:7e:40:
         eb:47:0b:88:9b:b4:c3:2d:4c:35:c2:5d:1a:fa:e2:27:23:ba:
         9e:2f:fd:7f:91:04:c4:cb:bc:ce:04:73:ea:21:eb:b4:67:6e:
         4e:ff:b1:da
-----BEGIN CERTIFICATE-----
MIIDoTCCAomgAwIBAgIQOqcH4zH3dbCQlVp60uedJTANBgkqhkiG9w0BAQsFADAc
MRowGAYDVQQDDBFzZXJ2ZXIuZWxpbi5sb2NhbDAeFw0yMTA1MTgxNjM1MThaFw0y
MTA4MTYxNjM1MThaMCgxJjAkBgNVBAMMHVRlc3QgaW50ZXJtZWRpYXRlIGNlcnRp
ZmljYXRlMIIBIjANBgkqhkiG9w0BAQEFAAOCAQ8AMIIBCgKCAQEAwS9ds704pgXg
dZCm7ckhGP8oDm0GBEMcQ12vLiUiMZW85cBLVTJU03jhXVatrkgR+2cWMNOWvO5+
o7qnr520gWHE8poozL+4MUx54ywk7SSHWDDm0DemuYPgTo41KxfiEGg3z7mZ4WKA
aKcGuqN0xOAFb+irenNuACMZobkm9t70J3Ge3AJupy/D0uUxrGHPzE+YmlpdXLiZ
VIYMifcr2C5sZSOmwaK36yH1fx0lknMOrTiE4wBOqFZdbZBLkDCgqHoiJMuaN76c
6BoERRqqixWexCFQX0GvTOxWjpOaHKmqnsbB6nWTYBauTuL1VT24piueVxCBa/+V
F4hwn8i6awIDAQABo4HSMIHPMAkGA1UdEwQCMAAwHQYDVR0OBBYEFPKo+Tovfxpv
EkvXp3sIGFj1HNfpMFcGA1UdIwRQME6AFDIJUOsaPWBsPG10INJerHGUrmjdoSCk
HjAcMRowGAYDVQQDDBFzZXJ2ZXIuZWxpbi5sb2NhbIIUIn6z7HE8z/LSmuRh3RkJ
/IGJYGswEwYDVR0lBAwwCgYIKwYBBQUHAwEwCwYDVR0PBAQDAgWgMCgGA1UdEQQh
MB+CHVRlc3QgaW50ZXJtZWRpYXRlIGNlcnRpZmljYXRlMA0GCSqGSIb3DQEBCwUA
A4IBAQBrF6fZILaLxnyUAP3c4VeNqMlfO7GT8CsAyD3/oRPWuCoEFApgWwVissZw
PNWouPA0rvxQxPPzf8DA9PD1+kj53q7JsSaLjjrSz9Adh37QvAA6GcQyuicNFkKM
xB9FXmV693mACruAiBgrZNp4tw1JcnX3JVRYN1BC4hvX/gMB/sL+veH0+/vs90E4
WK1SOnFqPc6Ps8z/t0lVrF5TQlQYzxJ94ftUsaT9XUw+/HLz89ZFpdwa1SP1j2nI
6GOmBB9FAXrrocERXEsAAY/vUnff7Ir5ydNwfkDrRwuIm7TDLUw1wl0a+uInI7qe
L/1/kQTEy7zOBHPqIeu0Z25O/7Ha
-----END CERTIFICATE-----
